; Function Attrs: nounwind uwtable
define dso_local noundef i32 @step_launch_clear_questionable_state(ptr noundef %0, i32 noundef %1) local_unnamed_addr #3 {
  %3 = tail call i32 @pthread_mutex_lock(ptr noundef %0) #14
  %.not = icmp eq i32 %3, 0
  br i1 %.not, label %6, label %4

4:                                                ; preds = %2
  %5 = tail call ptr @__errno_location() #15
  store i32 %3, ptr %5, align 4
  tail call void (ptr, ...) @fatal_abort(ptr noundef nonnull @.str.3, ptr noundef nonnull @__func__.step_launch_clear_questionable_state) #16
  unreachable

6:                                                ; preds = %2
  %7 = getelementptr inbounds nuw i8, ptr %0, i64 136
  %8 = load ptr, ptr %7, align 8
  %9 = sext i32 %1 to i64
  %10 = getelementptr inbounds i64, ptr %8, i64 %9
  store i64 4294967294, ptr %10, align 8
  %11 = tail call i32 @pthread_mutex_unlock(ptr noundef %0) #14
  %.not8 = icmp eq i32 %11, 0
  br i1 %.not8, label %14, label %12

12:                                               ; preds = %6
  %13 = tail call ptr @__errno_location() #15
  store i32 %11, ptr %13, align 4
  tail call void (ptr, ...) @fatal_abort(ptr noundef nonnull @.str.4, ptr noundef nonnull @__func__.step_launch_clear_questionable_state) #16
  unreachable

14:                                               ; preds = %6
  ret i32 0
}